target datalayout = "e-m:e-p270:32:32-p271:32:32-p272:64:64-i64:64-i128:128-f80:128-n8:16:32:64-S128"
target triple = "x86_64-pc-linux-gnu"

%struct.lua_State = type { ptr, i8, i8, i8, i8, i16, %union.StkIdRel, ptr, ptr, %union.StkIdRel, %union.StkIdRel, ptr, %union.StkIdRel, ptr, ptr, ptr, %struct.CallInfo, ptr, i64, i32, i32, i32, i32, i32, %struct.anon.2 }
%union.StkIdRel = type { ptr }
%struct.CallInfo = type { %union.StkIdRel, %union.StkIdRel, ptr, ptr, %union.anon, %union.anon.1, i32 }
%union.anon = type { %struct.anon.0 }
%struct.anon.0 = type { ptr, i64, i64 }
%union.anon.1 = type { i32 }
%struct.anon.2 = type { i32, i32 }
%union.StackValue = type { %struct.TValue }
%struct.TValue = type { %union.Value, i8 }
%union.Value = type { ptr }

; Function Attrs: noreturn nounwind uwtable
define hidden void @luaG_errormsg(ptr noundef %0) #5 {
  %2 = alloca ptr, align 8
  %3 = alloca ptr, align 8
  %4 = alloca ptr, align 8
  %5 = alloca ptr, align 8
  %6 = alloca ptr, align 8
  %7 = alloca ptr, align 8
  store ptr %0, ptr %2, align 8, !tbaa !30
  %8 = load ptr, ptr %2, align 8, !tbaa !30
  %9 = getelementptr inbounds nuw %struct.lua_State, ptr %8, i32 0, i32 18
  %10 = load i64, ptr %9, align 8, !tbaa !100
  %11 = icmp ne i64 %10, 0
  br i1 %11, label %12, label %59

12:                                               ; preds = %1
  call void @llvm.lifetime.start.p0(i64 8, ptr %3) #8
  %13 = load ptr, ptr %2, align 8, !tbaa !30
  %14 = getelementptr inbounds nuw %struct.lua_State, ptr %13, i32 0, i32 10
  %15 = load ptr, ptr %14, align 8, !tbaa !22
  %16 = load ptr, ptr %2, align 8, !tbaa !30
  %17 = getelementptr inbounds nuw %struct.lua_State, ptr %16, i32 0, i32 18
  %18 = load i64, ptr %17, align 8, !tbaa !100
  %19 = getelementptr inbounds i8, ptr %15, i64 %18
  store ptr %19, ptr %3, align 8, !tbaa !56
  call void @llvm.lifetime.start.p0(i64 8, ptr %4) #8
  %20 = load ptr, ptr %2, align 8, !tbaa !30
  %21 = getelementptr inbounds nuw %struct.lua_State, ptr %20, i32 0, i32 6
  %22 = load ptr, ptr %21, align 8, !tbaa !22
  store ptr %22, ptr %4, align 8, !tbaa !64
  call void @llvm.lifetime.start.p0(i64 8, ptr %5) #8
  %23 = load ptr, ptr %2, align 8, !tbaa !30
  %24 = getelementptr inbounds nuw %struct.lua_State, ptr %23, i32 0, i32 6
  %25 = load ptr, ptr %24, align 8, !tbaa !22
  %26 = getelementptr inbounds %union.StackValue, ptr %25, i64 -1
  store ptr %26, ptr %5, align 8, !tbaa !64
  %27 = load ptr, ptr %4, align 8, !tbaa !64
  %28 = getelementptr inbounds nuw %struct.TValue, ptr %27, i32 0, i32 0
  %29 = load ptr, ptr %5, align 8, !tbaa !64
  %30 = getelementptr inbounds nuw %struct.TValue, ptr %29, i32 0, i32 0
  call void @llvm.memcpy.p0.p0.i64(ptr align 8 %28, ptr align 8 %30, i64 8, i1 false), !tbaa.struct !65
  %31 = load ptr, ptr %5, align 8, !tbaa !64
  %32 = getelementptr inbounds nuw %struct.TValue, ptr %31, i32 0, i32 1
  %33 = load i8, ptr %32, align 8, !tbaa !66
  %34 = load ptr, ptr %4, align 8, !tbaa !64
  %35 = getelementptr inbounds nuw %struct.TValue, ptr %34, i32 0, i32 1
  store i8 %33, ptr %35, align 8, !tbaa !66
  call void @llvm.lifetime.end.p0(i64 8, ptr %5) #8
  call void @llvm.lifetime.end.p0(i64 8, ptr %4) #8
  call void @llvm.lifetime.start.p0(i64 8, ptr %6) #8
  %36 = load ptr, ptr %2, align 8, !tbaa !30
  %37 = getelementptr inbounds nuw %struct.lua_State, ptr %36, i32 0, i32 6
  %38 = load ptr, ptr %37, align 8, !tbaa !22
  %39 = getelementptr inbounds %union.StackValue, ptr %38, i64 -1
  store ptr %39, ptr %6, align 8, !tbaa !64
  call void @llvm.lifetime.start.p0(i64 8, ptr %7) #8
  %40 = load ptr, ptr %3, align 8, !tbaa !56
  store ptr %40, ptr %7, align 8, !tbaa !64
  %41 = load ptr, ptr %6, align 8, !tbaa !64
  %42 = getelementptr inbounds nuw %struct.TValue, ptr %41, i32 0, i32 0
  %43 = load ptr, ptr %7, align 8, !tbaa !64
  %44 = getelementptr inbounds nuw %struct.TValue, ptr %43, i32 0, i32 0
  call void @llvm.memcpy.p0.p0.i64(ptr align 8 %42, ptr align 8 %44, i64 8, i1 false), !tbaa.struct !65
  %45 = load ptr, ptr %7, align 8, !tbaa !64
  %46 = getelementptr inbounds nuw %struct.TValue, ptr %45, i32 0, i32 1
  %47 = load i8, ptr %46, align 8, !tbaa !66
  %48 = load ptr, ptr %6, align 8, !tbaa !64
  %49 = getelementptr inbounds nuw %struct.TValue, ptr %48, i32 0, i32 1
  store i8 %47, ptr %49, align 8, !tbaa !66
  call void @llvm.lifetime.end.p0(i64 8, ptr %7) #8
  call void @llvm.lifetime.end.p0(i64 8, ptr %6) #8
  %50 = load ptr, ptr %2, align 8, !tbaa !30
  %51 = getelementptr inbounds nuw %struct.lua_State, ptr %50, i32 0, i32 6
  %52 = load ptr, ptr %51, align 8, !tbaa !22
  %53 = getelementptr inbounds nuw %union.StackValue, ptr %52, i32 1
  store ptr %53, ptr %51, align 8, !tbaa !22
  %54 = load ptr, ptr %2, align 8, !tbaa !30
  %55 = load ptr, ptr %2, align 8, !tbaa !30
  %56 = getelementptr inbounds nuw %struct.lua_State, ptr %55, i32 0, i32 6
  %57 = load ptr, ptr %56, align 8, !tbaa !22
  %58 = getelementptr inbounds %union.StackValue, ptr %57, i64 -2
  call void @luaD_callnoyield(ptr noundef %54, ptr noundef %58, i32 noundef 1)
  call void @llvm.lifetime.end.p0(i64 8, ptr %3) #8
  br label %59

59:                                               ; preds = %12, %1
  %60 = load ptr, ptr %2, align 8, !tbaa !30
  call void @luaD_throw(ptr noundef %60, i32 noundef 2) #10
  unreachable
}