; Function Attrs: noreturn nounwind uwtable
define hidden void @luaG_errormsg(ptr noundef %0) local_unnamed_addr #9 {
  %2 = getelementptr inbounds nuw i8, ptr %0, i64 168
  %3 = load i64, ptr %2, align 8, !tbaa !93
  %.not = icmp eq i64 %3, 0
  br i1 %.not, label %24, label %4

4:                                                ; preds = %1
  %5 = getelementptr inbounds nuw i8, ptr %0, i64 48
  %6 = load ptr, ptr %5, align 8, !tbaa !24
  %7 = getelementptr inbounds i8, ptr %6, i64 %3
  %8 = getelementptr inbounds nuw i8, ptr %0, i64 16
  %9 = load ptr, ptr %8, align 8, !tbaa !24
  %10 = getelementptr inbounds i8, ptr %9, i64 -16
  %11 = load i64, ptr %10, align 8, !tbaa !24
  store i64 %11, ptr %9, align 8, !tbaa !24
  %12 = getelementptr inbounds i8, ptr %9, i64 -8
  %13 = load i8, ptr %12, align 8, !tbaa !53
  %14 = getelementptr inbounds nuw i8, ptr %9, i64 8
  store i8 %13, ptr %14, align 8, !tbaa !53
  %15 = load ptr, ptr %8, align 8, !tbaa !24
  %16 = getelementptr inbounds i8, ptr %15, i64 -16
  %17 = load i64, ptr %7, align 8, !tbaa !24
  store i64 %17, ptr %16, align 8, !tbaa !24
  %18 = getelementptr inbounds nuw i8, ptr %7, i64 8
  %19 = load i8, ptr %18, align 8, !tbaa !53
  %20 = getelementptr inbounds i8, ptr %15, i64 -8
  store i8 %19, ptr %20, align 8, !tbaa !53
  %21 = load ptr, ptr %8, align 8, !tbaa !24
  %22 = getelementptr inbounds nuw i8, ptr %21, i64 16
  store ptr %22, ptr %8, align 8, !tbaa !24
  %23 = getelementptr inbounds i8, ptr %21, i64 -16
  tail call void @luaD_callnoyield(ptr noundef nonnull %0, ptr noundef nonnull %23, i32 noundef 1) #13
  br label %24

24:                                               ; preds = %4, %1
  tail call void @luaD_throw(ptr noundef nonnull %0, i32 noundef 2) #16
  unreachable
}